Certificate:
    Data:
        Version: 3 (0x2)
        Serial Number:
            22:10:0d:04:a2:50:f0:c1:7f:62:1b:e9:db:64:d6:65
        Signature Algorithm: sha256WithRSAEncryption
        Issuer: CN=Aya
        Validity
            Not Before: Jan  3 15:35:26 2026 GMT
            Not After : Apr  7 15:35:26 2028 GMT
        Subject: CN=aya
        Subject Public Key Info:
            Public Key Algorithm: rsaEncryption
                Public-Key: (2048 bit)
                Modulus:
                    00:db:d1:d4:aa:72:26:fc:80:ca:03:fc:07:31:58:
                    85:36:65:79:16:2b:d9:03:5a:6a:44:da:68:37:90:
                    8a:2e:b7:f7:da:41:f0:6a:55:ea:69:a9:4e:8e:fb:
                    08:08:2f:df:11:0c:50:c3:2b:df:95:ec:e8:da:08:
                    e7:7c:87:30:1a:b8:46:2d:05:e6:2c:42:04:aa:ce:
                    ca:2d:ba:4f:82:2f:7e:9d:f1:ed:fa:62:d1:4b:39:
                    29:92:5c:4f:c6:c0:36:12:c4:bf:88:a2:2c:33:7f:
                    da:52:23:b0:bf:bd:41:e3:54:84:c4:ca:51:05:26:
                    e8:0c:7e:f3:43:56:88:57:7a:3e:e6:a3:da:bf:bd:
                    14:93:e5:0a:12:07:ff:f0:b8:b9:7b:2c:bd:64:b0:
                    e9:65:78:dc:94:d5:27:4f:e5:f1:d5:a6:25:01:98:
                    b0:69:0c:cd:81:d4:dc:b4:f5:5d:71:96:4c:bd:bf:
                    50:44:98:19:07:0f:25:3c:57:d0:dd:2b:7e:5a:00:
                    57:da:5c:54:17:7f:5e:a7:91:47:79:39:66:2f:26:
                    e8:f5:0c:90:0e:69:c9:63:f8:ad:b6:47:96:dc:38:
                    17:99:f3:13:a4:b2:08:fd:77:d1:77:13:2f:ad:75:
                    c3:d3:0b:80:36:33:70:69:b1:b2:5e:a5:3f:13:ce:
                    5e:8d
                Exponent: 65537 (0x10001)
        X509v3 extensions:
            X509v3 Basic Constraints:
                CA:FALSE
            X509v3 Subject Key Identifier:
                D8:73:02:EC:3E:EA:EC:C3:1E:F8:81:FB:C3:0A:72:DB:05:20:CC:C9
            X509v3 Authority Key Identifier:
                keyid:50:97:6E:F8:B9:4A:35:FD:D2:FD:A9:97:19:9F:4C:06:8F:A7:C8:C1
                DirName:/CN=Aya
                serial:70:44:0A:73:8D:45:6D:28:0D:43:8E:D2:80:B5:2C:51:30:ED:05:3A
            X509v3 Extended Key Usage:
                TLS Web Server Authentication
            X509v3 Key Usage:
                Digital Signature, Key Encipherment
    Signature Algorithm: sha256WithRSAEncryption
    Signature Value:
        9f:cb:d6:83:c5:6f:4f:a1:fd:d7:92:4f:eb:5d:7b:dd:15:11:
        77:4f:47:e8:7c:6e:0c:ba:74:eb:bb:ce:4f:ea:b0:85:a3:bb:
        2d:f7:16:aa:1f:57:7d:57:1c:bc:98:8d:47:fe:d9:ed:c4:59:
        e2:af:6e:27:67:b4:77:43:cd:01:03:b0:a2:b1:c0:da:6e:44:
        30:60:de:7d:94:19:44:90:1b:b8:0c:ca:ca:77:aa:c3:4a:28:
        61:06:c6:20:c8:90:91:ed:ae:73:a8:36:6e:a8:d9:90:4d:97:
        fa:40:93:b0:b0:4f:be:a5:d9:37:20:71:a3:2d:12:66:51:c5:
        23:89:f5:b9:e1:43:35:05:4e:9b:f3:34:3b:4f:74:08:b1:a5:
        1c:af:3b:f4:3e:84:8c:e9:07:a8:f5:ad:76:5a:6a:44:b3:99:
        fe:f7:76:84:c4:b7:bf:81:8f:65:3f:36:98:c7:f5:c3:d1:6e:
        ca:de:ec:e7:be:79:21:c8:46:0f:95:c3:2a:f2:f8:12:8c:c8:
        59:5f:12:9c:04:6d:16:68:3a:e4:af:55:e8:dd:13:85:32:22:
        66:c2:6f:ea:aa:ef:11:be:9d:3b:73:49:af:5e:aa:c2:ed:00:
        ce:6c:63:e4:e1:db:10:68:17:21:c7:8c:54:98:50:38:d9:3d:
        5b:5a:19:9a
-----BEGIN CERTIFICATE-----
MIIDQTCCAimgAwIBAgIQIhANBKJQ8MF/Yhvp22TWZTANBgkqhkiG9w0BAQsFADAO
MQwwCgYDVQQDDANBeWEwHhcNMjYwMTAzMTUzNTI2WhcNMjgwNDA3MTUzNTI2WjAO
MQwwCgYDVQQDDANheWEwggEiMA0GCSqGSIb3DQEBAQUAA4IBDwAwggEKAoIBAQDb
0dSqcib8gMoD/AcxWIU2ZXkWK9kDWmpE2mg3kIout/faQfBqVeppqU6O+wgIL98R
DFDDK9+V7OjaCOd8hzAauEYtBeYsQgSqzsotuk+CL36d8e36YtFLOSmSXE/GwDYS
xL+Ioiwzf9pSI7C/vUHjVITEylEFJugMfvNDVohXej7mo9q/vRST5QoSB//wuLl7
LL1ksOlleNyU1SdP5fHVpiUBmLBpDM2B1Ny09V1xlky9v1BEmBkHDyU8V9DdK35a
AFfaXFQXf16nkUd5OWYvJuj1DJAOaclj+K22R5bcOBeZ8xOksgj9d9F3Ey+tdcPT
C4A2M3BpsbJepT8Tzl6NAgMBAAGjgZowgZcwCQYDVR0TBAIwADAdBgNVHQ4EFgQU
2HMC7D7q7MMe+IH7wwpy2wUgzMkwSQYDVR0jBEIwQIAUUJdu+LlKNf3S/amXGZ9M
Bo+nyMGhEqQQMA4xDDAKBgNVBAMMA0F5YYIUcEQKc41FbSgNQ47SgLUsUTDtBTow
EwYDVR0lBAwwCgYIKwYBBQUHAwEwCwYDVR0PBAQDAgWgMA0GCSqGSIb3DQEBCwUA
A4IBAQCfy9aDxW9Pof3Xkk/rXXvdFRF3T0fofG4MunTru85P6rCFo7st9xaqH1d9
Vxy8mI1H/tntxFnir24nZ7R3Q80BA7CiscDabkQwYN59lBlEkBu4DMrKd6rDSihh
BsYgyJCR7a5zqDZuqNmQTZf6QJOwsE++pdk3IHGjLRJmUcUjifW54UM1BU6b8zQ7
T3QIsaUcrzv0PoSM6Qeo9a12WmpEs5n+93aExLe/gY9lPzaYx/XD0W7K3uznvnkh
yEYPlcMq8vgSjMhZXxKcBG0WaDrkr1Xo3ROFMiJmwm/qqu8Rvp07c0mvXqrC7QDO
bGPk4dsQaBchx4xUmFA42T1bWhma
-----END CERTIFICATE-----